target datalayout = "e-m:e-p270:32:32-p271:32:32-p272:64:64-i64:64-i128:128-f80:128-n8:16:32:64-S128"
target triple = "x86_64-pc-linux-gnu"

%struct.rb_data_type_struct = type { ptr, %struct.anon, ptr, ptr, i64 }
%struct.anon = type { ptr, ptr, ptr, ptr, [1 x ptr] }

@rb_eRuntimeError = external global i64, align 8
@stctx_ex_verify_cb_idx = internal global i32 0, align 4
@eX509StoreError = internal global i64 0, align 8
@ossl_x509stctx_type = internal constant %struct.rb_data_type_struct { ptr @.str.32, %struct.anon { ptr @ossl_x509stctx_mark, ptr @ossl_x509stctx_free, ptr null, ptr null, [1 x ptr] zeroinitializer }, ptr null, ptr null, i64 33 }, align 8
@.str.40 = private unnamed_addr constant [17 x i8] c"@verify_callback\00", align 1
@.str.52 = private unnamed_addr constant [27 x i8] c"STORE_CTX is out of scope!\00", align 1
@.str.55 = private unnamed_addr constant [17 x i8] c"X509_verify_cert\00", align 1

; Function Attrs: nounwind sspstrong uwtable
define internal i64 @ossl_x509stctx_verify(i64 noundef %0) #0 {
  %2 = alloca i64, align 8
  %3 = alloca i64, align 8
  %4 = alloca ptr, align 8
  %5 = alloca i64, align 8
  %6 = alloca i32, align 4
  store i64 %0, ptr %3, align 8, !tbaa !6
  call void @llvm.lifetime.start.p0(i64 8, ptr %4) #12
  br label %7

7:                                                ; preds = %1
  %8 = load i64, ptr %3, align 8, !tbaa !6
  %9 = call ptr @rb_check_typeddata(i64 noundef %8, ptr noundef @ossl_x509stctx_type)
  store ptr %9, ptr %4, align 8, !tbaa !12
  %10 = load ptr, ptr %4, align 8, !tbaa !12
  %11 = icmp ne ptr %10, null
  br i1 %11, label %14, label %12

12:                                               ; preds = %7
  %13 = load i64, ptr @rb_eRuntimeError, align 8, !tbaa !6
  call void (i64, ptr, ...) @ossl_raise(i64 noundef %13, ptr noundef @.str.52) #16
  unreachable

14:                                               ; preds = %7
  br label %15

15:                                               ; preds = %14
  br label %16

16:                                               ; preds = %15
  call void @llvm.lifetime.start.p0(i64 8, ptr %5) #12
  %17 = load i64, ptr %3, align 8, !tbaa !6
  %18 = call i64 @rb_iv_get(i64 noundef %17, ptr noundef @.str.40)
  store i64 %18, ptr %5, align 8, !tbaa !6
  %19 = load ptr, ptr %4, align 8, !tbaa !12
  %20 = load i32, ptr @stctx_ex_verify_cb_idx, align 4, !tbaa !10
  %21 = load i64, ptr %5, align 8, !tbaa !6
  %22 = inttoptr i64 %21 to ptr
  %23 = call i32 @X509_STORE_CTX_set_ex_data(ptr noundef %19, i32 noundef %20, ptr noundef %22)
  %24 = load ptr, ptr %4, align 8, !tbaa !12
  %25 = call i32 @X509_verify_cert(ptr noundef %24)
  switch i32 %25, label %28 [
    i32 1, label %26
    i32 0, label %27
  ]

26:                                               ; preds = %16
  store i64 20, ptr %2, align 8
  store i32 1, ptr %6, align 4
  br label %30

27:                                               ; preds = %16
  call void @ossl_clear_error()
  store i64 0, ptr %2, align 8
  store i32 1, ptr %6, align 4
  br label %30

28:                                               ; preds = %16
  %29 = load i64, ptr @eX509StoreError, align 8, !tbaa !6
  call void (i64, ptr, ...) @ossl_raise(i64 noundef %29, ptr noundef @.str.55) #16
  unreachable

30:                                               ; preds = %27, %26
  call void @llvm.lifetime.end.p0(i64 8, ptr %5) #12
  call void @llvm.lifetime.end.p0(i64 8, ptr %4) #12
  %31 = load i64, ptr %2, align 8
  ret i64 %31
}