; Function Attrs: nounwind sspstrong uwtable
define internal range(i64 0, 21) i64 @ossl_x509stctx_verify(i64 noundef %0) #0 {
  %2 = tail call ptr @rb_check_typeddata(i64 noundef %0, ptr noundef nonnull @ossl_x509stctx_type) #5
  %.not = icmp eq ptr %2, null
  br i1 %.not, label %3, label %5

3:                                                ; preds = %1
  %4 = load i64, ptr @rb_eRuntimeError, align 8, !tbaa !20
  tail call void (i64, ptr, ...) @ossl_raise(i64 noundef %4, ptr noundef nonnull @.str.52) #7
  unreachable

5:                                                ; preds = %1
  %6 = tail call i64 @rb_iv_get(i64 noundef %0, ptr noundef nonnull @.str.40) #5
  %7 = load i32, ptr @stctx_ex_verify_cb_idx, align 4, !tbaa !6
  %8 = inttoptr i64 %6 to ptr
  %9 = tail call i32 @X509_STORE_CTX_set_ex_data(ptr noundef nonnull %2, i32 noundef %7, ptr noundef %8) #5
  %10 = tail call i32 @X509_verify_cert(ptr noundef nonnull %2) #5
  switch i32 %10, label %12 [
    i32 1, label %14
    i32 0, label %11
  ]

11:                                               ; preds = %5
  tail call void @ossl_clear_error() #5
  br label %14

12:                                               ; preds = %5
  %13 = load i64, ptr @eX509StoreError, align 8, !tbaa !20
  tail call void (i64, ptr, ...) @ossl_raise(i64 noundef %13, ptr noundef nonnull @.str.55) #7
  unreachable

14:                                               ; preds = %5, %11
  %.0 = phi i64 [ 0, %11 ], [ 20, %5 ]
  ret i64 %.0
}